; Function Attrs: mustprogress nofree norecurse nosync nounwind willreturn memory(argmem: read) uwtable
define i32 @cli_bcapi_pdf_get_obj_num(ptr nocapture noundef readonly %0) local_unnamed_addr #24 {
  %2 = getelementptr inbounds i8, ptr %0, i64 1056
  %3 = load i32, ptr %2, align 8
  %.not = icmp eq i32 %3, 0
  br i1 %.not, label %7, label %4

4:                                                ; preds = %1
  %5 = getelementptr inbounds i8, ptr %0, i64 1024
  %6 = load i32, ptr %5, align 8
  br label %7

7:                                                ; preds = %1, %4
  %.0 = phi i32 [ %6, %4 ], [ -1, %1 ]
  ret i32 %.0
}